target datalayout = "e-m:e-p270:32:32-p271:32:32-p272:64:64-i64:64-i128:128-f80:128-n8:16:32:64-S128"
target triple = "x86_64-pc-linux-gnu"

%class.meshopt_Allocator = type { [24 x ptr], i64 }
%"struct.meshopt::TriangleAdjacency" = type { ptr, ptr, ptr }

@_ZN17meshopt_Allocator8StorageTIvE8allocateE = linkonce_odr dso_local global ptr @_Znwm, comdat, align 8

; Function Attrs: mustprogress uwtable
define linkonce_odr dso_local noundef ptr @_ZN17meshopt_Allocator8allocateIjEEPT_m(ptr noundef nonnull align 8 dereferenceable(200) %0, i64 noundef %1) #0 comdat align 2 {
  %3 = alloca ptr, align 8
  %4 = alloca i64, align 8
  %5 = alloca ptr, align 8
  store ptr %0, ptr %3, align 8, !tbaa !35
  store i64 %1, ptr %4, align 8, !tbaa !9
  %6 = load ptr, ptr %3, align 8
  call void @llvm.lifetime.start.p0(i64 8, ptr %5) #8
  %7 = load ptr, ptr @_ZN17meshopt_Allocator8StorageTIvE8allocateE, align 8, !tbaa !39
  %8 = load i64, ptr %4, align 8, !tbaa !9
  %9 = icmp ugt i64 %8, 4611686018427387903
  br i1 %9, label %10, label %11

10:                                               ; preds = %2
  br label %14

11:                                               ; preds = %2
  %12 = load i64, ptr %4, align 8, !tbaa !9
  %13 = mul i64 %12, 4
  br label %14

14:                                               ; preds = %11, %10
  %15 = phi i64 [ -1, %10 ], [ %13, %11 ]
  %16 = call noundef ptr %7(i64 noundef %15)
  store ptr %16, ptr %5, align 8, !tbaa !4
  %17 = load ptr, ptr %5, align 8, !tbaa !4
  %18 = getelementptr inbounds nuw %class.meshopt_Allocator, ptr %6, i32 0, i32 0
  %19 = getelementptr inbounds nuw %class.meshopt_Allocator, ptr %6, i32 0, i32 1
  %20 = load i64, ptr %19, align 8, !tbaa !37
  %21 = add i64 %20, 1
  store i64 %21, ptr %19, align 8, !tbaa !37
  %22 = getelementptr inbounds nuw [24 x ptr], ptr %18, i64 0, i64 %20
  store ptr %17, ptr %22, align 8, !tbaa !39
  %23 = load ptr, ptr %5, align 8, !tbaa !4
  call void @llvm.lifetime.end.p0(i64 8, ptr %5) #8
  ret ptr %23
}

; Function Attrs: mustprogress uwtable
define internal void @_ZN7meshoptL22buildTriangleAdjacencyERNS_17TriangleAdjacencyEPKjmmR17meshopt_Allocator(ptr noundef nonnull align 8 dereferenceable(24) %0, ptr noundef %1, i64 noundef %2, i64 noundef %3, ptr noundef nonnull align 8 dereferenceable(200) %4) #0 {
  %6 = alloca ptr, align 8
  %7 = alloca ptr, align 8
  %8 = alloca i64, align 8
  %9 = alloca i64, align 8
  %10 = alloca ptr, align 8
  %11 = alloca i64, align 8
  %12 = alloca i64, align 8
  %13 = alloca i32, align 4
  %14 = alloca i64, align 8
  %15 = alloca i64, align 8
  %16 = alloca i32, align 4
  %17 = alloca i32, align 4
  %18 = alloca i32, align 4
  %19 = alloca i64, align 8
  store ptr %0, ptr %6, align 8, !tbaa !40
  store ptr %1, ptr %7, align 8, !tbaa !4
  store i64 %2, ptr %8, align 8, !tbaa !9
  store i64 %3, ptr %9, align 8, !tbaa !9
  store ptr %4, ptr %10, align 8, !tbaa !35
  call void @llvm.lifetime.start.p0(i64 8, ptr %11) #8
  %20 = load i64, ptr %8, align 8, !tbaa !9
  %21 = udiv i64 %20, 3
  store i64 %21, ptr %11, align 8, !tbaa !9
  %22 = load ptr, ptr %10, align 8, !tbaa !35
  %23 = load i64, ptr %9, align 8, !tbaa !9
  %24 = call noundef ptr @_ZN17meshopt_Allocator8allocateIjEEPT_m(ptr noundef nonnull align 8 dereferenceable(200) %22, i64 noundef %23)
  %25 = load ptr, ptr %6, align 8, !tbaa !40
  %26 = getelementptr inbounds nuw %"struct.meshopt::TriangleAdjacency", ptr %25, i32 0, i32 0
  store ptr %24, ptr %26, align 8, !tbaa !15
  %27 = load ptr, ptr %10, align 8, !tbaa !35
  %28 = load i64, ptr %9, align 8, !tbaa !9
  %29 = call noundef ptr @_ZN17meshopt_Allocator8allocateIjEEPT_m(ptr noundef nonnull align 8 dereferenceable(200) %27, i64 noundef %28)
  %30 = load ptr, ptr %6, align 8, !tbaa !40
  %31 = getelementptr inbounds nuw %"struct.meshopt::TriangleAdjacency", ptr %30, i32 0, i32 1
  store ptr %29, ptr %31, align 8, !tbaa !29
  %32 = load ptr, ptr %10, align 8, !tbaa !35
  %33 = load i64, ptr %8, align 8, !tbaa !9
  %34 = call noundef ptr @_ZN17meshopt_Allocator8allocateIjEEPT_m(ptr noundef nonnull align 8 dereferenceable(200) %32, i64 noundef %33)
  %35 = load ptr, ptr %6, align 8, !tbaa !40
  %36 = getelementptr inbounds nuw %"struct.meshopt::TriangleAdjacency", ptr %35, i32 0, i32 2
  store ptr %34, ptr %36, align 8, !tbaa !28
  %37 = load ptr, ptr %6, align 8, !tbaa !40
  %38 = getelementptr inbounds nuw %"struct.meshopt::TriangleAdjacency", ptr %37, i32 0, i32 0
  %39 = load ptr, ptr %38, align 8, !tbaa !15
  %40 = load i64, ptr %9, align 8, !tbaa !9
  %41 = mul i64 %40, 4
  call void @llvm.memset.p0.i64(ptr align 4 %39, i8 0, i64 %41, i1 false)
  call void @llvm.lifetime.start.p0(i64 8, ptr %12) #8
  store i64 0, ptr %12, align 8, !tbaa !9
  br label %42

42:                                               ; preds = %59, %5
  %43 = load i64, ptr %12, align 8, !tbaa !9
  %44 = load i64, ptr %8, align 8, !tbaa !9
  %45 = icmp ult i64 %43, %44
  br i1 %45, label %47, label %46

46:                                               ; preds = %42
  call void @llvm.lifetime.end.p0(i64 8, ptr %12) #8
  br label %62

47:                                               ; preds = %42
  %48 = load ptr, ptr %6, align 8, !tbaa !40
  %49 = getelementptr inbounds nuw %"struct.meshopt::TriangleAdjacency", ptr %48, i32 0, i32 0
  %50 = load ptr, ptr %49, align 8, !tbaa !15
  %51 = load ptr, ptr %7, align 8, !tbaa !4
  %52 = load i64, ptr %12, align 8, !tbaa !9
  %53 = getelementptr inbounds nuw i32, ptr %51, i64 %52
  %54 = load i32, ptr %53, align 4, !tbaa !13
  %55 = zext i32 %54 to i64
  %56 = getelementptr inbounds nuw i32, ptr %50, i64 %55
  %57 = load i32, ptr %56, align 4, !tbaa !13
  %58 = add i32 %57, 1
  store i32 %58, ptr %56, align 4, !tbaa !13
  br label %59

59:                                               ; preds = %47
  %60 = load i64, ptr %12, align 8, !tbaa !9
  %61 = add i64 %60, 1
  store i64 %61, ptr %12, align 8, !tbaa !9
  br label %42, !llvm.loop !42

62:                                               ; preds = %46
  call void @llvm.lifetime.start.p0(i64 4, ptr %13) #8
  store i32 0, ptr %13, align 4, !tbaa !13
  call void @llvm.lifetime.start.p0(i64 8, ptr %14) #8
  store i64 0, ptr %14, align 8, !tbaa !9
  br label %63

63:                                               ; preds = %83, %62
  %64 = load i64, ptr %14, align 8, !tbaa !9
  %65 = load i64, ptr %9, align 8, !tbaa !9
  %66 = icmp ult i64 %64, %65
  br i1 %66, label %68, label %67

67:                                               ; preds = %63
  call void @llvm.lifetime.end.p0(i64 8, ptr %14) #8
  br label %86

68:                                               ; preds = %63
  %69 = load i32, ptr %13, align 4, !tbaa !13
  %70 = load ptr, ptr %6, align 8, !tbaa !40
  %71 = getelementptr inbounds nuw %"struct.meshopt::TriangleAdjacency", ptr %70, i32 0, i32 1
  %72 = load ptr, ptr %71, align 8, !tbaa !29
  %73 = load i64, ptr %14, align 8, !tbaa !9
  %74 = getelementptr inbounds nuw i32, ptr %72, i64 %73
  store i32 %69, ptr %74, align 4, !tbaa !13
  %75 = load ptr, ptr %6, align 8, !tbaa !40
  %76 = getelementptr inbounds nuw %"struct.meshopt::TriangleAdjacency", ptr %75, i32 0, i32 0
  %77 = load ptr, ptr %76, align 8, !tbaa !15
  %78 = load i64, ptr %14, align 8, !tbaa !9
  %79 = getelementptr inbounds nuw i32, ptr %77, i64 %78
  %80 = load i32, ptr %79, align 4, !tbaa !13
  %81 = load i32, ptr %13, align 4, !tbaa !13
  %82 = add i32 %81, %80
  store i32 %82, ptr %13, align 4, !tbaa !13
  br label %83

83:                                               ; preds = %68
  %84 = load i64, ptr %14, align 8, !tbaa !9
  %85 = add i64 %84, 1
  store i64 %85, ptr %14, align 8, !tbaa !9
  br label %63, !llvm.loop !43

86:                                               ; preds = %67
  call void @llvm.lifetime.start.p0(i64 8, ptr %15) #8
  store i64 0, ptr %15, align 8, !tbaa !9
  br label %87

87:                                               ; preds = %156, %86
  %88 = load i64, ptr %15, align 8, !tbaa !9
  %89 = load i64, ptr %11, align 8, !tbaa !9
  %90 = icmp ult i64 %88, %89
  br i1 %90, label %92, label %91

91:                                               ; preds = %87
  call void @llvm.lifetime.end.p0(i64 8, ptr %15) #8
  br label %159

92:                                               ; preds = %87
  call void @llvm.lifetime.start.p0(i64 4, ptr %16) #8
  %93 = load ptr, ptr %7, align 8, !tbaa !4
  %94 = load i64, ptr %15, align 8, !tbaa !9
  %95 = mul i64 %94, 3
  %96 = add i64 %95, 0
  %97 = getelementptr inbounds nuw i32, ptr %93, i64 %96
  %98 = load i32, ptr %97, align 4, !tbaa !13
  store i32 %98, ptr %16, align 4, !tbaa !13
  call void @llvm.lifetime.start.p0(i64 4, ptr %17) #8
  %99 = load ptr, ptr %7, align 8, !tbaa !4
  %100 = load i64, ptr %15, align 8, !tbaa !9
  %101 = mul i64 %100, 3
  %102 = add i64 %101, 1
  %103 = getelementptr inbounds nuw i32, ptr %99, i64 %102
  %104 = load i32, ptr %103, align 4, !tbaa !13
  store i32 %104, ptr %17, align 4, !tbaa !13
  call void @llvm.lifetime.start.p0(i64 4, ptr %18) #8
  %105 = load ptr, ptr %7, align 8, !tbaa !4
  %106 = load i64, ptr %15, align 8, !tbaa !9
  %107 = mul i64 %106, 3
  %108 = add i64 %107, 2
  %109 = getelementptr inbounds nuw i32, ptr %105, i64 %108
  %110 = load i32, ptr %109, align 4, !tbaa !13
  store i32 %110, ptr %18, align 4, !tbaa !13
  %111 = load i64, ptr %15, align 8, !tbaa !9
  %112 = trunc i64 %111 to i32
  %113 = load ptr, ptr %6, align 8, !tbaa !40
  %114 = getelementptr inbounds nuw %"struct.meshopt::TriangleAdjacency", ptr %113, i32 0, i32 2
  %115 = load ptr, ptr %114, align 8, !tbaa !28
  %116 = load ptr, ptr %6, align 8, !tbaa !40
  %117 = getelementptr inbounds nuw %"struct.meshopt::TriangleAdjacency", ptr %116, i32 0, i32 1
  %118 = load ptr, ptr %117, align 8, !tbaa !29
  %119 = load i32, ptr %16, align 4, !tbaa !13
  %120 = zext i32 %119 to i64
  %121 = getelementptr inbounds nuw i32, ptr %118, i64 %120
  %122 = load i32, ptr %121, align 4, !tbaa !13
  %123 = add i32 %122, 1
  store i32 %123, ptr %121, align 4, !tbaa !13
  %124 = zext i32 %122 to i64
  %125 = getelementptr inbounds nuw i32, ptr %115, i64 %124
  store i32 %112, ptr %125, align 4, !tbaa !13
  %126 = load i64, ptr %15, align 8, !tbaa !9
  %127 = trunc i64 %126 to i32
  %128 = load ptr, ptr %6, align 8, !tbaa !40
  %129 = getelementptr inbounds nuw %"struct.meshopt::TriangleAdjacency", ptr %128, i32 0, i32 2
  %130 = load ptr, ptr %129, align 8, !tbaa !28
  %131 = load ptr, ptr %6, align 8, !tbaa !40
  %132 = getelementptr inbounds nuw %"struct.meshopt::TriangleAdjacency", ptr %131, i32 0, i32 1
  %133 = load ptr, ptr %132, align 8, !tbaa !29
  %134 = load i32, ptr %17, align 4, !tbaa !13
  %135 = zext i32 %134 to i64
  %136 = getelementptr inbounds nuw i32, ptr %133, i64 %135
  %137 = load i32, ptr %136, align 4, !tbaa !13
  %138 = add i32 %137, 1
  store i32 %138, ptr %136, align 4, !tbaa !13
  %139 = zext i32 %137 to i64
  %140 = getelementptr inbounds nuw i32, ptr %130, i64 %139
  store i32 %127, ptr %140, align 4, !tbaa !13
  %141 = load i64, ptr %15, align 8, !tbaa !9
  %142 = trunc i64 %141 to i32
  %143 = load ptr, ptr %6, align 8, !tbaa !40
  %144 = getelementptr inbounds nuw %"struct.meshopt::TriangleAdjacency", ptr %143, i32 0, i32 2
  %145 = load ptr, ptr %144, align 8, !tbaa !28
  %146 = load ptr, ptr %6, align 8, !tbaa !40
  %147 = getelementptr inbounds nuw %"struct.meshopt::TriangleAdjacency", ptr %146, i32 0, i32 1
  %148 = load ptr, ptr %147, align 8, !tbaa !29
  %149 = load i32, ptr %18, align 4, !tbaa !13
  %150 = zext i32 %149 to i64
  %151 = getelementptr inbounds nuw i32, ptr %148, i64 %150
  %152 = load i32, ptr %151, align 4, !tbaa !13
  %153 = add i32 %152, 1
  store i32 %153, ptr %151, align 4, !tbaa !13
  %154 = zext i32 %152 to i64
  %155 = getelementptr inbounds nuw i32, ptr %145, i64 %154
  store i32 %142, ptr %155, align 4, !tbaa !13
  call void @llvm.lifetime.end.p0(i64 4, ptr %18) #8
  call void @llvm.lifetime.end.p0(i64 4, ptr %17) #8
  call void @llvm.lifetime.end.p0(i64 4, ptr %16) #8
  br label %156

156:                                              ; preds = %92
  %157 = load i64, ptr %15, align 8, !tbaa !9
  %158 = add i64 %157, 1
  store i64 %158, ptr %15, align 8, !tbaa !9
  br label %87, !llvm.loop !44

159:                                              ; preds = %91
  call void @llvm.lifetime.start.p0(i64 8, ptr %19) #8
  store i64 0, ptr %19, align 8, !tbaa !9
  br label %160

160:                                              ; preds = %179, %159
  %161 = load i64, ptr %19, align 8, !tbaa !9
  %162 = load i64, ptr %9, align 8, !tbaa !9
  %163 = icmp ult i64 %161, %162
  br i1 %163, label %165, label %164

164:                                              ; preds = %160
  call void @llvm.lifetime.end.p0(i64 8, ptr %19) #8
  br label %182

165:                                              ; preds = %160
  %166 = load ptr, ptr %6, align 8, !tbaa !40
  %167 = getelementptr inbounds nuw %"struct.meshopt::TriangleAdjacency", ptr %166, i32 0, i32 0
  %168 = load ptr, ptr %167, align 8, !tbaa !15
  %169 = load i64, ptr %19, align 8, !tbaa !9
  %170 = getelementptr inbounds nuw i32, ptr %168, i64 %169
  %171 = load i32, ptr %170, align 4, !tbaa !13
  %172 = load ptr, ptr %6, align 8, !tbaa !40
  %173 = getelementptr inbounds nuw %"struct.meshopt::TriangleAdjacency", ptr %172, i32 0, i32 1
  %174 = load ptr, ptr %173, align 8, !tbaa !29
  %175 = load i64, ptr %19, align 8, !tbaa !9
  %176 = getelementptr inbounds nuw i32, ptr %174, i64 %175
  %177 = load i32, ptr %176, align 4, !tbaa !13
  %178 = sub i32 %177, %171
  store i32 %178, ptr %176, align 4, !tbaa !13
  br label %179

179:                                              ; preds = %165
  %180 = load i64, ptr %19, align 8, !tbaa !9
  %181 = add i64 %180, 1
  store i64 %181, ptr %19, align 8, !tbaa !9
  br label %160, !llvm.loop !45

182:                                              ; preds = %164
  call void @llvm.lifetime.end.p0(i64 4, ptr %13) #8
  call void @llvm.lifetime.end.p0(i64 8, ptr %11) #8
  ret void
}