; Function Attrs: mustprogress uwtable
define internal fastcc void @_ZN7meshoptL22buildTriangleAdjacencyERNS_17TriangleAdjacencyEPKjmmR17meshopt_Allocator(ptr noundef nonnull align 8 captures(none) dereferenceable(24) initializes((0, 24)) %0, ptr noundef readonly captures(none) %1, i64 noundef range(i64 1, 0) %2, i64 noundef range(i64 1, 0) %3, ptr noundef nonnull align 8 captures(none) dereferenceable(200) %4) unnamed_addr #0 {
  %6 = load ptr, ptr @_ZN17meshopt_Allocator8StorageTIvE8allocateE, align 8, !tbaa !4
  %7 = icmp ugt i64 %3, 4611686018427387903
  %8 = shl i64 %3, 2
  %9 = select i1 %7, i64 -1, i64 %8
  %10 = tail call noundef ptr %6(i64 noundef %9)
  %11 = getelementptr inbounds nuw i8, ptr %4, i64 192
  %12 = load i64, ptr %11, align 8, !tbaa !8
  %13 = add i64 %12, 1
  store i64 %13, ptr %11, align 8, !tbaa !8
  %14 = getelementptr inbounds nuw [24 x ptr], ptr %4, i64 0, i64 %12
  store ptr %10, ptr %14, align 8, !tbaa !4
  store ptr %10, ptr %0, align 8, !tbaa !11
  %15 = load ptr, ptr @_ZN17meshopt_Allocator8StorageTIvE8allocateE, align 8, !tbaa !4
  %16 = tail call noundef ptr %15(i64 noundef %9)
  %17 = load i64, ptr %11, align 8, !tbaa !8
  %18 = add i64 %17, 1
  store i64 %18, ptr %11, align 8, !tbaa !8
  %19 = getelementptr inbounds nuw [24 x ptr], ptr %4, i64 0, i64 %17
  store ptr %16, ptr %19, align 8, !tbaa !4
  %20 = getelementptr inbounds nuw i8, ptr %0, i64 8
  store ptr %16, ptr %20, align 8, !tbaa !21
  %21 = load ptr, ptr @_ZN17meshopt_Allocator8StorageTIvE8allocateE, align 8, !tbaa !4
  %22 = icmp ugt i64 %2, 4611686018427387903
  %23 = shl nuw i64 %2, 2
  %24 = select i1 %22, i64 -1, i64 %23
  %25 = tail call noundef ptr %21(i64 noundef %24)
  %26 = load i64, ptr %11, align 8, !tbaa !8
  %27 = add i64 %26, 1
  store i64 %27, ptr %11, align 8, !tbaa !8
  %28 = getelementptr inbounds nuw [24 x ptr], ptr %4, i64 0, i64 %26
  store ptr %25, ptr %28, align 8, !tbaa !4
  %29 = getelementptr inbounds nuw i8, ptr %0, i64 16
  store ptr %25, ptr %29, align 8, !tbaa !20
  %30 = load ptr, ptr %0, align 8, !tbaa !11
  tail call void @llvm.memset.p0.i64(ptr align 4 %30, i8 0, i64 %8, i1 false)
  %31 = load ptr, ptr %0, align 8, !tbaa !11
  br label %33

.preheader60:                                     ; preds = %33
  %32 = load ptr, ptr %20, align 8, !tbaa !21
  br label %43

33:                                               ; preds = %5, %33
  %.05461 = phi i64 [ 0, %5 ], [ %40, %33 ]
  %34 = getelementptr inbounds nuw i32, ptr %1, i64 %.05461
  %35 = load i32, ptr %34, align 4, !tbaa !14
  %36 = zext i32 %35 to i64
  %37 = getelementptr inbounds nuw i32, ptr %31, i64 %36
  %38 = load i32, ptr %37, align 4, !tbaa !14
  %39 = add i32 %38, 1
  store i32 %39, ptr %37, align 4, !tbaa !14
  %40 = add nuw i64 %.05461, 1
  %exitcond.not = icmp eq i64 %40, %2
  br i1 %exitcond.not, label %.preheader60, label %33, !llvm.loop !32

.preheader59:                                     ; preds = %43
  %41 = udiv i64 %2, 3
  %.not = icmp ult i64 %2, 3
  br i1 %.not, label %.preheader.preheader, label %.lr.ph

.preheader.preheader:                             ; preds = %49, %.preheader59
  br label %.preheader

.lr.ph:                                           ; preds = %.preheader59
  %42 = load ptr, ptr %29, align 8, !tbaa !20
  br label %49

43:                                               ; preds = %.preheader60, %43
  %.05563 = phi i32 [ 0, %.preheader60 ], [ %47, %43 ]
  %.05662 = phi i64 [ 0, %.preheader60 ], [ %48, %43 ]
  %44 = getelementptr inbounds nuw i32, ptr %32, i64 %.05662
  store i32 %.05563, ptr %44, align 4, !tbaa !14
  %45 = getelementptr inbounds nuw i32, ptr %31, i64 %.05662
  %46 = load i32, ptr %45, align 4, !tbaa !14
  %47 = add i32 %46, %.05563
  %48 = add nuw i64 %.05662, 1
  %exitcond66.not = icmp eq i64 %48, %3
  br i1 %exitcond66.not, label %.preheader59, label %43, !llvm.loop !33

49:                                               ; preds = %.lr.ph, %49
  %.05764 = phi i64 [ 0, %.lr.ph ], [ %75, %49 ]
  %.idx = mul nuw i64 %.05764, 12
  %50 = getelementptr inbounds nuw i8, ptr %1, i64 %.idx
  %51 = load i32, ptr %50, align 4, !tbaa !14
  %52 = getelementptr i8, ptr %50, i64 4
  %53 = load i32, ptr %52, align 4, !tbaa !14
  %54 = getelementptr i8, ptr %50, i64 8
  %55 = load i32, ptr %54, align 4, !tbaa !14
  %56 = trunc i64 %.05764 to i32
  %57 = zext i32 %51 to i64
  %58 = getelementptr inbounds nuw i32, ptr %32, i64 %57
  %59 = load i32, ptr %58, align 4, !tbaa !14
  %60 = add i32 %59, 1
  store i32 %60, ptr %58, align 4, !tbaa !14
  %61 = zext i32 %59 to i64
  %62 = getelementptr inbounds nuw i32, ptr %42, i64 %61
  store i32 %56, ptr %62, align 4, !tbaa !14
  %63 = zext i32 %53 to i64
  %64 = getelementptr inbounds nuw i32, ptr %32, i64 %63
  %65 = load i32, ptr %64, align 4, !tbaa !14
  %66 = add i32 %65, 1
  store i32 %66, ptr %64, align 4, !tbaa !14
  %67 = zext i32 %65 to i64
  %68 = getelementptr inbounds nuw i32, ptr %42, i64 %67
  store i32 %56, ptr %68, align 4, !tbaa !14
  %69 = zext i32 %55 to i64
  %70 = getelementptr inbounds nuw i32, ptr %32, i64 %69
  %71 = load i32, ptr %70, align 4, !tbaa !14
  %72 = add i32 %71, 1
  store i32 %72, ptr %70, align 4, !tbaa !14
  %73 = zext i32 %71 to i64
  %74 = getelementptr inbounds nuw i32, ptr %42, i64 %73
  store i32 %56, ptr %74, align 4, !tbaa !14
  %75 = add nuw nsw i64 %.05764, 1
  %exitcond67.not = icmp eq i64 %75, %41
  br i1 %exitcond67.not, label %.preheader.preheader, label %49, !llvm.loop !34

76:                                               ; preds = %.preheader
  ret void

.preheader:                                       ; preds = %.preheader.preheader, %.preheader
  %.065 = phi i64 [ %82, %.preheader ], [ 0, %.preheader.preheader ]
  %77 = getelementptr inbounds nuw i32, ptr %31, i64 %.065
  %78 = load i32, ptr %77, align 4, !tbaa !14
  %79 = getelementptr inbounds nuw i32, ptr %32, i64 %.065
  %80 = load i32, ptr %79, align 4, !tbaa !14
  %81 = sub i32 %80, %78
  store i32 %81, ptr %79, align 4, !tbaa !14
  %82 = add nuw i64 %.065, 1
  %exitcond68.not = icmp eq i64 %82, %3
  br i1 %exitcond68.not, label %76, label %.preheader, !llvm.loop !35
}